target datalayout = "e-m:e-p270:32:32-p271:32:32-p272:64:64-i64:64-i128:128-f80:128-n8:16:32:64-S128"
target triple = "x86_64-unknown-linux-gnu"

%"class.std::shared_ptr" = type { %"class.std::__shared_ptr" }
%"class.std::__shared_ptr" = type { ptr, %"class.std::__shared_count" }
%"class.std::__shared_count" = type { ptr }
%"class.OpenColorIO_v2_4dev::GradingPrimaryOpData" = type { %"class.OpenColorIO_v2_4dev::OpData", i32, %"class.std::shared_ptr.8" }
%"class.OpenColorIO_v2_4dev::OpData" = type { ptr, %"class.std::mutex", %"class.OpenColorIO_v2_4dev::FormatMetadataImpl" }
%"class.std::mutex" = type { %"class.std::__mutex_base" }
%"class.std::__mutex_base" = type { %union.pthread_mutex_t }
%union.pthread_mutex_t = type { %struct.__pthread_mutex_s }
%struct.__pthread_mutex_s = type { i32, i32, i32, i32, i32, i16, i16, %struct.__pthread_internal_list }
%struct.__pthread_internal_list = type { ptr, ptr }
%"class.OpenColorIO_v2_4dev::FormatMetadataImpl" = type { %"class.OpenColorIO_v2_4dev::FormatMetadata", %"class.std::__cxx11::basic_string", %"class.std::__cxx11::basic_string", %"class.std::vector", %"class.std::vector.3" }
%"class.OpenColorIO_v2_4dev::FormatMetadata" = type { ptr }
%"class.std::__cxx11::basic_string" = type { %"struct.std::__cxx11::basic_string<char>::_Alloc_hider", i64, %union.anon }
%"struct.std::__cxx11::basic_string<char>::_Alloc_hider" = type { ptr }
%union.anon = type { i64, [8 x i8] }
%"class.std::vector" = type { %"struct.std::_Vector_base" }
%"struct.std::_Vector_base" = type { %"struct.std::_Vector_base<std::pair<std::__cxx11::basic_string<char>, std::__cxx11::basic_string<char>>, std::allocator<std::pair<std::__cxx11::basic_string<char>, std::__cxx11::basic_string<char>>>>::_Vector_impl" }
%"struct.std::_Vector_base<std::pair<std::__cxx11::basic_string<char>, std::__cxx11::basic_string<char>>, std::allocator<std::pair<std::__cxx11::basic_string<char>, std::__cxx11::basic_string<char>>>>::_Vector_impl" = type { %"struct.std::_Vector_base<std::pair<std::__cxx11::basic_string<char>, std::__cxx11::basic_string<char>>, std::allocator<std::pair<std::__cxx11::basic_string<char>, std::__cxx11::basic_string<char>>>>::_Vector_impl_data" }
%"struct.std::_Vector_base<std::pair<std::__cxx11::basic_string<char>, std::__cxx11::basic_string<char>>, std::allocator<std::pair<std::__cxx11::basic_string<char>, std::__cxx11::basic_string<char>>>>::_Vector_impl_data" = type { ptr, ptr, ptr }
%"class.std::vector.3" = type { %"struct.std::_Vector_base.4" }
%"struct.std::_Vector_base.4" = type { %"struct.std::_Vector_base<OpenColorIO_v2_4dev::FormatMetadataImpl, std::allocator<OpenColorIO_v2_4dev::FormatMetadataImpl>>::_Vector_impl" }
%"struct.std::_Vector_base<OpenColorIO_v2_4dev::FormatMetadataImpl, std::allocator<OpenColorIO_v2_4dev::FormatMetadataImpl>>::_Vector_impl" = type { %"struct.std::_Vector_base<OpenColorIO_v2_4dev::FormatMetadataImpl, std::allocator<OpenColorIO_v2_4dev::FormatMetadataImpl>>::_Vector_impl_data" }
%"struct.std::_Vector_base<OpenColorIO_v2_4dev::FormatMetadataImpl, std::allocator<OpenColorIO_v2_4dev::FormatMetadataImpl>>::_Vector_impl_data" = type { ptr, ptr, ptr }
%"class.std::shared_ptr.8" = type { %"class.std::__shared_ptr.9" }
%"class.std::__shared_ptr.9" = type { ptr, %"class.std::__shared_count" }
%"class.OpenColorIO_v2_4dev::GradingPrimaryTransformImpl" = type { %"class.OpenColorIO_v2_4dev::GradingPrimaryTransform", %"class.OpenColorIO_v2_4dev::GradingPrimaryOpData" }
%"class.OpenColorIO_v2_4dev::GradingPrimaryTransform" = type { %"class.OpenColorIO_v2_4dev::Transform" }
%"class.OpenColorIO_v2_4dev::Transform" = type { ptr }

@_ZTIN19OpenColorIO_v2_4dev27GradingPrimaryTransformImplE = external constant ptr

; Function Attrs: mustprogress nounwind uwtable
define linkonce_odr hidden noundef nonnull align 8 dereferenceable(192) ptr @_ZNK19OpenColorIO_v2_4dev27GradingPrimaryTransformImpl4dataEv(ptr noundef nonnull align 8 dereferenceable(200) %this) #1 comdat align 2 {
entry:
  %this.addr = alloca ptr, align 8
  store ptr %this, ptr %this.addr, align 8
  %this1 = load ptr, ptr %this.addr, align 8
  %m_data = getelementptr inbounds %"class.OpenColorIO_v2_4dev::GradingPrimaryTransformImpl", ptr %this1, i32 0, i32 1
  ret ptr %m_data
}

; Function Attrs: mustprogress uwtable
define hidden void @_ZN19OpenColorIO_v2_4dev21BuildGradingPrimaryOpERNS_10OpRcPtrVecERKNS_6ConfigERKSt10shared_ptrIKNS_7ContextEERKNS_23GradingPrimaryTransformENS_18TransformDirectionE(ptr noundef nonnull align 8 dereferenceable(144) %ops, ptr noundef nonnull align 8 dereferenceable(8) %0, ptr noundef nonnull align 1 %1, ptr noundef nonnull align 8 dereferenceable(8) %transform, i32 noundef %dir) #0 personality ptr @__gxx_personality_v0 {
entry:
  %ops.addr = alloca ptr, align 8
  %.addr = alloca ptr, align 8
  %.addr1 = alloca ptr, align 8
  %transform.addr = alloca ptr, align 8
  %dir.addr = alloca i32, align 4
  %data = alloca ptr, align 8
  %primData = alloca %"class.std::shared_ptr", align 8
  %exn.slot = alloca ptr, align 8
  %ehselector.slot = alloca i32, align 4
  store ptr %ops, ptr %ops.addr, align 8
  store ptr %0, ptr %.addr, align 8
  store ptr %1, ptr %.addr1, align 8
  store ptr %transform, ptr %transform.addr, align 8
  store i32 %dir, ptr %dir.addr, align 4
  %2 = load ptr, ptr %transform.addr, align 8
  %3 = call ptr @__dynamic_cast(ptr %2, ptr @_ZTIN19OpenColorIO_v2_4dev23GradingPrimaryTransformE, ptr @_ZTIN19OpenColorIO_v2_4dev27GradingPrimaryTransformImplE, i64 0) #12
  %4 = icmp eq ptr %3, null
  br i1 %4, label %dynamic_cast.bad_cast, label %dynamic_cast.end

dynamic_cast.bad_cast:                            ; preds = %entry
  call void @__cxa_bad_cast() #13
  unreachable

dynamic_cast.end:                                 ; preds = %entry
  %call = call noundef nonnull align 8 dereferenceable(192) ptr @_ZNK19OpenColorIO_v2_4dev27GradingPrimaryTransformImpl4dataEv(ptr noundef nonnull align 8 dereferenceable(200) %3) #12
  store ptr %call, ptr %data, align 8
  %5 = load ptr, ptr %data, align 8
  %vtable = load ptr, ptr %5, align 8
  %vfn = getelementptr inbounds ptr, ptr %vtable, i64 2
  %6 = load ptr, ptr %vfn, align 8
  call void %6(ptr noundef nonnull align 8 dereferenceable(192) %5)
  %7 = load ptr, ptr %data, align 8
  call void @_ZNK19OpenColorIO_v2_4dev20GradingPrimaryOpData5cloneEv(ptr sret(%"class.std::shared_ptr") align 8 %primData, ptr noundef nonnull align 8 dereferenceable(192) %7)
  %8 = load ptr, ptr %ops.addr, align 8
  %9 = load i32, ptr %dir.addr, align 4
  invoke void @_ZN19OpenColorIO_v2_4dev22CreateGradingPrimaryOpERNS_10OpRcPtrVecERSt10shared_ptrINS_20GradingPrimaryOpDataEENS_18TransformDirectionE(ptr noundef nonnull align 8 dereferenceable(144) %8, ptr noundef nonnull align 8 dereferenceable(16) %primData, i32 noundef %9)
          to label %invoke.cont unwind label %lpad

invoke.cont:                                      ; preds = %dynamic_cast.end
  call void @_ZNSt10shared_ptrIN19OpenColorIO_v2_4dev20GradingPrimaryOpDataEED2Ev(ptr noundef nonnull align 8 dereferenceable(16) %primData) #12
  ret void

lpad:                                             ; preds = %dynamic_cast.end
  %10 = landingpad { ptr, i32 }
          cleanup
  %11 = extractvalue { ptr, i32 } %10, 0
  store ptr %11, ptr %exn.slot, align 8
  %12 = extractvalue { ptr, i32 } %10, 1
  store i32 %12, ptr %ehselector.slot, align 4
  call void @_ZNSt10shared_ptrIN19OpenColorIO_v2_4dev20GradingPrimaryOpDataEED2Ev(ptr noundef nonnull align 8 dereferenceable(16) %primData) #12
  br label %eh.resume

eh.resume:                                        ; preds = %lpad
  %exn = load ptr, ptr %exn.slot, align 8
  %sel = load i32, ptr %ehselector.slot, align 4
  %lpad.val = insertvalue { ptr, i32 } poison, ptr %exn, 0
  %lpad.val2 = insertvalue { ptr, i32 } %lpad.val, i32 %sel, 1
  resume { ptr, i32 } %lpad.val2
}